target datalayout = "e-m:e-p270:32:32-p271:32:32-p272:64:64-i64:64-i128:128-f80:128-n8:16:32:64-S128"
target triple = "x86_64-pc-linux-gnu"

%struct.URLContext = type { ptr, ptr, ptr, ptr, i32, i32, i32, i32, %struct.AVIOInterruptCB, i64, ptr, ptr, i32 }
%struct.AVIOInterruptCB = type { ptr, ptr }
%struct.HTTPContext = type { ptr, ptr, [8192 x i8], ptr, ptr, i32, i32, i64, i32, i64, i64, i64, ptr, ptr, %struct.HTTPAuthState, %struct.HTTPAuthState, ptr, ptr, ptr, ptr, ptr, ptr, ptr, i32, i32, i32, i32, i32, i32, ptr, i32, i32, i32, ptr, ptr, i32, i64, i64, ptr, ptr, ptr, i32, %struct.z_stream_s, ptr, ptr, i32, ptr, i32, i32, i32, i32, i32, ptr, i32, ptr, i32, i32, i32, i32, i32, i64, ptr, ptr, i64, i32, i32, i32, i32 }
%struct.HTTPAuthState = type { i32, [200 x i8], %struct.DigestParams, i32 }
%struct.DigestParams = type { [300 x i8], [10 x i8], [30 x i8], [300 x i8], [10 x i8], i32 }
%struct.z_stream_s = type { ptr, i32, i64, ptr, i32, i64, ptr, ptr, ptr, ptr, ptr, i32, i64, i64 }

@__const.http_shutdown.footer = private unnamed_addr constant [6 x i8] c"0\0D\0A\0D\0A\00", align 1
@.str.117 = private unnamed_addr constant [20 x i8] c"URL read error: %s\0A\00", align 1

; Function Attrs: inlinehint nounwind uwtable
define internal ptr @av_make_error_string(ptr noundef %0, i64 noundef %1, i32 noundef %2) #7 {
  %4 = alloca ptr, align 8
  %5 = alloca i64, align 8
  %6 = alloca i32, align 4
  store ptr %0, ptr %4, align 8, !tbaa !17
  store i64 %1, ptr %5, align 8, !tbaa !47
  store i32 %2, ptr %6, align 4, !tbaa !34
  %7 = load i32, ptr %6, align 4, !tbaa !34
  %8 = load ptr, ptr %4, align 8, !tbaa !17
  %9 = load i64, ptr %5, align 8, !tbaa !47
  %10 = call i32 @av_strerror(i32 noundef %7, ptr noundef %8, i64 noundef %9)
  %11 = load ptr, ptr %4, align 8, !tbaa !17
  ret ptr %11
}

; Function Attrs: inlinehint nounwind uwtable
define internal i32 @ffurl_read(ptr noundef %0, ptr noundef %1, i32 noundef %2) #7 {
  %4 = alloca ptr, align 8
  %5 = alloca ptr, align 8
  %6 = alloca i32, align 4
  store ptr %0, ptr %4, align 8, !tbaa !4
  store ptr %1, ptr %5, align 8, !tbaa !17
  store i32 %2, ptr %6, align 4, !tbaa !34
  %7 = load ptr, ptr %4, align 8, !tbaa !4
  %8 = load ptr, ptr %5, align 8, !tbaa !17
  %9 = load i32, ptr %6, align 4, !tbaa !34
  %10 = call i32 @ffurl_read2(ptr noundef %7, ptr noundef %8, i32 noundef %9)
  ret i32 %10
}

; Function Attrs: inlinehint nounwind uwtable
define internal i32 @ffurl_write(ptr noundef %0, ptr noundef %1, i32 noundef %2) #7 {
  %4 = alloca ptr, align 8
  %5 = alloca ptr, align 8
  %6 = alloca i32, align 4
  store ptr %0, ptr %4, align 8, !tbaa !4
  store ptr %1, ptr %5, align 8, !tbaa !17
  store i32 %2, ptr %6, align 4, !tbaa !34
  %7 = load ptr, ptr %4, align 8, !tbaa !4
  %8 = load ptr, ptr %5, align 8, !tbaa !17
  %9 = load i32, ptr %6, align 4, !tbaa !34
  %10 = call i32 @ffurl_write2(ptr noundef %7, ptr noundef %8, i32 noundef %9)
  ret i32 %10
}

; Function Attrs: nounwind uwtable
define internal i32 @http_shutdown(ptr noundef %0, i32 noundef %1) #0 {
  %3 = alloca ptr, align 8
  %4 = alloca i32, align 4
  %5 = alloca i32, align 4
  %6 = alloca [6 x i8], align 1
  %7 = alloca ptr, align 8
  %8 = alloca [1024 x i8], align 16
  %9 = alloca i32, align 4
  %10 = alloca [64 x i8], align 1
  store ptr %0, ptr %3, align 8, !tbaa !4
  store i32 %1, ptr %4, align 4, !tbaa !34
  call void @llvm.lifetime.start.p0(i64 4, ptr %5) #11
  store i32 0, ptr %5, align 4, !tbaa !34
  call void @llvm.lifetime.start.p0(i64 6, ptr %6) #11
  call void @llvm.memcpy.p0.p0.i64(ptr align 1 %6, ptr align 1 @__const.http_shutdown.footer, i64 6, i1 false)
  call void @llvm.lifetime.start.p0(i64 8, ptr %7) #11
  %11 = load ptr, ptr %3, align 8, !tbaa !4
  %12 = getelementptr inbounds nuw %struct.URLContext, ptr %11, i32 0, i32 2
  %13 = load ptr, ptr %12, align 8, !tbaa !9
  store ptr %13, ptr %7, align 8, !tbaa !21
  %14 = load i32, ptr %4, align 4, !tbaa !34
  %15 = and i32 %14, 2
  %16 = icmp ne i32 %15, 0
  br i1 %16, label %17, label %22

17:                                               ; preds = %2
  %18 = load ptr, ptr %7, align 8, !tbaa !21
  %19 = getelementptr inbounds nuw %struct.HTTPContext, ptr %18, i32 0, i32 25
  %20 = load i32, ptr %19, align 8, !tbaa !42
  %21 = icmp ne i32 %20, 0
  br i1 %21, label %36, label %22

22:                                               ; preds = %17, %2
  %23 = load i32, ptr %4, align 4, !tbaa !34
  %24 = and i32 %23, 1
  %25 = icmp ne i32 %24, 0
  br i1 %25, label %26, label %85

26:                                               ; preds = %22
  %27 = load ptr, ptr %7, align 8, !tbaa !21
  %28 = getelementptr inbounds nuw %struct.HTTPContext, ptr %27, i32 0, i32 25
  %29 = load i32, ptr %28, align 8, !tbaa !42
  %30 = icmp ne i32 %29, 0
  br i1 %30, label %31, label %85

31:                                               ; preds = %26
  %32 = load ptr, ptr %7, align 8, !tbaa !21
  %33 = getelementptr inbounds nuw %struct.HTTPContext, ptr %32, i32 0, i32 53
  %34 = load i32, ptr %33, align 8, !tbaa !43
  %35 = icmp ne i32 %34, 0
  br i1 %35, label %36, label %85

36:                                               ; preds = %31, %17
  %37 = load ptr, ptr %7, align 8, !tbaa !21
  %38 = getelementptr inbounds nuw %struct.HTTPContext, ptr %37, i32 0, i32 1
  %39 = load ptr, ptr %38, align 8, !tbaa !44
  %40 = getelementptr inbounds [6 x i8], ptr %6, i64 0, i64 0
  %41 = call i32 @ffurl_write(ptr noundef %39, ptr noundef %40, i32 noundef 5)
  store i32 %41, ptr %5, align 4, !tbaa !34
  %42 = load i32, ptr %5, align 4, !tbaa !34
  %43 = icmp sgt i32 %42, 0
  br i1 %43, label %44, label %45

44:                                               ; preds = %36
  br label %47

45:                                               ; preds = %36
  %46 = load i32, ptr %5, align 4, !tbaa !34
  br label %47

47:                                               ; preds = %45, %44
  %48 = phi i32 [ 0, %44 ], [ %46, %45 ]
  store i32 %48, ptr %5, align 4, !tbaa !34
  %49 = load i32, ptr %4, align 4, !tbaa !34
  %50 = and i32 %49, 1
  %51 = icmp ne i32 %50, 0
  br i1 %51, label %82, label %52

52:                                               ; preds = %47
  call void @llvm.lifetime.start.p0(i64 1024, ptr %8) #11
  call void @llvm.lifetime.start.p0(i64 4, ptr %9) #11
  %53 = load ptr, ptr %7, align 8, !tbaa !21
  %54 = getelementptr inbounds nuw %struct.HTTPContext, ptr %53, i32 0, i32 1
  %55 = load ptr, ptr %54, align 8, !tbaa !44
  %56 = getelementptr inbounds nuw %struct.URLContext, ptr %55, i32 0, i32 4
  %57 = load i32, ptr %56, align 8, !tbaa !36
  %58 = or i32 %57, 8
  store i32 %58, ptr %56, align 8, !tbaa !36
  %59 = load ptr, ptr %7, align 8, !tbaa !21
  %60 = getelementptr inbounds nuw %struct.HTTPContext, ptr %59, i32 0, i32 1
  %61 = load ptr, ptr %60, align 8, !tbaa !44
  %62 = getelementptr inbounds [1024 x i8], ptr %8, i64 0, i64 0
  %63 = call i32 @ffurl_read(ptr noundef %61, ptr noundef %62, i32 noundef 1024)
  store i32 %63, ptr %9, align 4, !tbaa !34
  %64 = load ptr, ptr %7, align 8, !tbaa !21
  %65 = getelementptr inbounds nuw %struct.HTTPContext, ptr %64, i32 0, i32 1
  %66 = load ptr, ptr %65, align 8, !tbaa !44
  %67 = getelementptr inbounds nuw %struct.URLContext, ptr %66, i32 0, i32 4
  %68 = load i32, ptr %67, align 8, !tbaa !36
  %69 = and i32 %68, -9
  store i32 %69, ptr %67, align 8, !tbaa !36
  %70 = load i32, ptr %9, align 4, !tbaa !34
  %71 = icmp slt i32 %70, 0
  br i1 %71, label %72, label %81

72:                                               ; preds = %52
  %73 = load i32, ptr %9, align 4, !tbaa !34
  %74 = icmp ne i32 %73, -11
  br i1 %74, label %75, label %81

75:                                               ; preds = %72
  %76 = load ptr, ptr %3, align 8, !tbaa !4
  call void @llvm.memset.p0.i64(ptr align 1 %10, i8 0, i64 64, i1 false)
  %77 = getelementptr inbounds [64 x i8], ptr %10, i64 0, i64 0
  %78 = load i32, ptr %9, align 4, !tbaa !34
  %79 = call ptr @av_make_error_string(ptr noundef %77, i64 noundef 64, i32 noundef %78)
  call void (ptr, i32, ptr, ...) @av_log(ptr noundef %76, i32 noundef 16, ptr noundef @.str.117, ptr noundef %79)
  %80 = load i32, ptr %9, align 4, !tbaa !34
  store i32 %80, ptr %5, align 4, !tbaa !34
  br label %81

81:                                               ; preds = %75, %72, %52
  call void @llvm.lifetime.end.p0(i64 4, ptr %9) #11
  call void @llvm.lifetime.end.p0(i64 1024, ptr %8) #11
  br label %82

82:                                               ; preds = %81, %47
  %83 = load ptr, ptr %7, align 8, !tbaa !21
  %84 = getelementptr inbounds nuw %struct.HTTPContext, ptr %83, i32 0, i32 26
  store i32 1, ptr %84, align 4, !tbaa !35
  br label %85

85:                                               ; preds = %82, %31, %26, %22
  %86 = load i32, ptr %5, align 4, !tbaa !34
  call void @llvm.lifetime.end.p0(i64 8, ptr %7) #11
  call void @llvm.lifetime.end.p0(i64 6, ptr %6) #11
  call void @llvm.lifetime.end.p0(i64 4, ptr %5) #11
  ret i32 %86
}