; Function Attrs: nounwind uwtable
define internal range(i32 -2147483648, 1) i32 @http_shutdown(ptr noundef %0, i32 noundef %1) #2 {
  %3 = alloca [6 x i8], align 1
  %4 = alloca [1024 x i8], align 16
  %5 = alloca [64 x i8], align 1
  call void @llvm.lifetime.start.p0(i64 6, ptr nonnull %3) #15
  call void @llvm.memcpy.p0.p0.i64(ptr noundef nonnull align 1 dereferenceable(6) %3, ptr noundef nonnull align 1 dereferenceable(6) @__const.http_shutdown.footer, i64 6, i1 false)
  %6 = getelementptr inbounds nuw i8, ptr %0, i64 16
  %7 = load ptr, ptr %6, align 8, !tbaa !4
  %8 = and i32 %1, 2
  %.not = icmp eq i32 %8, 0
  br i1 %.not, label %13, label %9

9:                                                ; preds = %2
  %10 = getelementptr inbounds nuw i8, ptr %7, i64 10080
  %11 = load i32, ptr %10, align 8, !tbaa !35
  %.not21 = icmp eq i32 %11, 0
  br i1 %.not21, label %13, label %._crit_edge

._crit_edge:                                      ; preds = %9
  %.pre = and i32 %1, 1
  %12 = icmp eq i32 %.pre, 0
  br label %21

13:                                               ; preds = %9, %2
  %14 = and i32 %1, 1
  %.not22 = icmp eq i32 %14, 0
  br i1 %.not22, label %43, label %15

15:                                               ; preds = %13
  %16 = getelementptr inbounds nuw i8, ptr %7, i64 10080
  %17 = load i32, ptr %16, align 8, !tbaa !35
  %.not23 = icmp eq i32 %17, 0
  br i1 %.not23, label %43, label %18

18:                                               ; preds = %15
  %19 = getelementptr inbounds nuw i8, ptr %7, i64 10368
  %20 = load i32, ptr %19, align 8, !tbaa !36
  %.not24 = icmp eq i32 %20, 0
  br i1 %.not24, label %43, label %21

21:                                               ; preds = %._crit_edge, %18
  %.pre-phi = phi i1 [ %12, %._crit_edge ], [ false, %18 ]
  %22 = getelementptr inbounds nuw i8, ptr %7, i64 8
  %23 = load ptr, ptr %22, align 8, !tbaa !37
  %24 = call i32 @ffurl_write2(ptr noundef %23, ptr noundef nonnull %3, i32 noundef 5) #15
  %25 = call i32 @llvm.smin.i32(i32 %24, i32 0)
  br i1 %.pre-phi, label %26, label %41

26:                                               ; preds = %21
  call void @llvm.lifetime.start.p0(i64 1024, ptr nonnull %4) #15
  %27 = load ptr, ptr %22, align 8, !tbaa !37
  %28 = getelementptr inbounds nuw i8, ptr %27, i64 32
  %29 = load i32, ptr %28, align 8, !tbaa !29
  %30 = or i32 %29, 8
  store i32 %30, ptr %28, align 8, !tbaa !29
  %31 = call i32 @ffurl_read2(ptr noundef %27, ptr noundef nonnull %4, i32 noundef 1024) #15
  %32 = load ptr, ptr %22, align 8, !tbaa !37
  %33 = getelementptr inbounds nuw i8, ptr %32, i64 32
  %34 = load i32, ptr %33, align 8, !tbaa !29
  %35 = and i32 %34, -9
  store i32 %35, ptr %33, align 8, !tbaa !29
  %36 = icmp slt i32 %31, 0
  %37 = icmp ne i32 %31, -11
  %or.cond = and i1 %36, %37
  br i1 %or.cond, label %38, label %40

38:                                               ; preds = %26
  call void @llvm.memset.p0.i64(ptr noundef nonnull align 1 dereferenceable(64) %5, i8 0, i64 64, i1 false)
  %39 = call i32 @av_strerror(i32 noundef range(i32 -2147483648, 0) %31, ptr noundef nonnull %5, i64 noundef 64) #15
  call void (ptr, i32, ptr, ...) @av_log(ptr noundef nonnull %0, i32 noundef 16, ptr noundef nonnull @.str.117, ptr noundef nonnull %5) #15
  br label %40

40:                                               ; preds = %38, %26
  %.2 = phi i32 [ %31, %38 ], [ %25, %26 ]
  call void @llvm.lifetime.end.p0(i64 1024, ptr nonnull %4) #15
  br label %41

41:                                               ; preds = %40, %21
  %.1 = phi i32 [ %25, %21 ], [ %.2, %40 ]
  %42 = getelementptr inbounds nuw i8, ptr %7, i64 10084
  store i32 1, ptr %42, align 4, !tbaa !28
  br label %43

43:                                               ; preds = %41, %18, %15, %13
  %.0 = phi i32 [ %.1, %41 ], [ 0, %18 ], [ 0, %15 ], [ 0, %13 ]
  call void @llvm.lifetime.end.p0(i64 6, ptr nonnull %3) #15
  ret i32 %.0
}